target datalayout = "e-m:e-p270:32:32-p271:32:32-p272:64:64-i64:64-i128:128-f80:128-n8:16:32:64-S128"
target triple = "x86_64-pc-linux-gnu"

; Function Attrs: mustprogress nounwind uwtable
define hidden noundef i32 @_ZN2cv3dnn12cpu_baseline17fastGemmPackBSizeEii(i32 noundef %0, i32 noundef %1) #4 {
  %3 = alloca i32, align 4
  %4 = alloca i32, align 4
  %5 = alloca i32, align 4
  %6 = alloca i32, align 4
  %7 = alloca i32, align 4
  store i32 %0, ptr %3, align 4, !tbaa !3
  store i32 %1, ptr %4, align 4, !tbaa !3
  call void @llvm.lifetime.start.p0(i64 4, ptr %5) #3
  store i32 240, ptr %5, align 4, !tbaa !3
  call void @llvm.lifetime.start.p0(i64 4, ptr %6) #3
  store i32 12, ptr %6, align 4, !tbaa !3
  call void @llvm.lifetime.start.p0(i64 4, ptr %7) #3
  %8 = load i32, ptr %5, align 4, !tbaa !3
  %9 = load i32, ptr %3, align 4, !tbaa !3
  %10 = icmp slt i32 %8, %9
  br i1 %10, label %11, label %13

11:                                               ; preds = %2
  %12 = load i32, ptr %5, align 4, !tbaa !3
  br label %15

13:                                               ; preds = %2
  %14 = load i32, ptr %3, align 4, !tbaa !3
  br label %15

15:                                               ; preds = %13, %11
  %16 = phi i32 [ %12, %11 ], [ %14, %13 ]
  %17 = load i32, ptr %6, align 4, !tbaa !3
  %18 = add nsw i32 %16, %17
  %19 = sub nsw i32 %18, 1
  %20 = load i32, ptr %6, align 4, !tbaa !3
  %21 = sdiv i32 %19, %20
  %22 = load i32, ptr %6, align 4, !tbaa !3
  %23 = mul nsw i32 %21, %22
  store i32 %23, ptr %7, align 4, !tbaa !3
  %24 = load i32, ptr %3, align 4, !tbaa !3
  %25 = load i32, ptr %7, align 4, !tbaa !3
  %26 = add nsw i32 %24, %25
  %27 = sub nsw i32 %26, 1
  %28 = load i32, ptr %7, align 4, !tbaa !3
  %29 = sdiv i32 %27, %28
  %30 = load i32, ptr %7, align 4, !tbaa !3
  %31 = mul nsw i32 %29, %30
  %32 = load i32, ptr %4, align 4, !tbaa !3
  %33 = mul nsw i32 %31, %32
  call void @llvm.lifetime.end.p0(i64 4, ptr %7) #3
  call void @llvm.lifetime.end.p0(i64 4, ptr %6) #3
  call void @llvm.lifetime.end.p0(i64 4, ptr %5) #3
  ret i32 %33
}

; Function Attrs: mustprogress nounwind uwtable
define hidden noundef i64 @_ZN2cv3dnn17fastGemmPackBSizeEmmRKNS0_11FastGemmOptE(i64 noundef %0, i64 noundef %1, ptr noundef nonnull align 1 dereferenceable(5) %2) #4 {
  %4 = alloca i64, align 8
  %5 = alloca i64, align 8
  %6 = alloca ptr, align 8
  store i64 %0, ptr %4, align 8, !tbaa !26
  store i64 %1, ptr %5, align 8, !tbaa !26
  store ptr %2, ptr %6, align 8, !tbaa !105
  %7 = load i64, ptr %4, align 8, !tbaa !26
  %8 = trunc i64 %7 to i32
  %9 = load i64, ptr %5, align 8, !tbaa !26
  %10 = trunc i64 %9 to i32
  %11 = call noundef i32 @_ZN2cv3dnn12cpu_baseline17fastGemmPackBSizeEii(i32 noundef %8, i32 noundef %10)
  %12 = sext i32 %11 to i64
  ret i64 %12
}