; Function Attrs: mustprogress nofree norecurse nosync nounwind willreturn memory(none) uwtable
define hidden noundef range(i64 -2147483648, 2147483648) i64 @_ZN2cv3dnn17fastGemmPackBSizeEmmRKNS0_11FastGemmOptE(i64 noundef %0, i64 noundef %1, ptr noundef nonnull readnone align 1 captures(none) dereferenceable(5) %2) local_unnamed_addr #3 {
  %4 = trunc i64 %0 to i32
  %5 = trunc i64 %1 to i32
  %6 = tail call i32 @llvm.smin.i32(i32 %4, i32 240)
  %7 = add nsw i32 %6, 11
  %8 = srem i32 %7, 12
  %9 = sub nsw i32 %7, %8
  %.fr.i = freeze i32 %9
  %10 = add i32 %4, -1
  %11 = add i32 %10, %.fr.i
  %12 = srem i32 %11, %.fr.i
  %13 = sub nsw i32 %11, %12
  %14 = mul nsw i32 %13, %5
  %15 = sext i32 %14 to i64
  ret i64 %15
}